; Function Attrs: null_pointer_is_valid sspstrong uwtable
define internal i32 @imap_request_hash(ptr noundef readonly captures(none) %0) #0 {
  %2 = load ptr, ptr %0, align 8
  %3 = tail call i32 @wmem_str_hash(ptr noundef %2)
  %4 = mul i32 %3, 37
  %5 = getelementptr inbounds nuw i8, ptr %0, i64 8
  %6 = load i32, ptr %5, align 8
  %7 = mul i32 %6, 765
  %8 = add i32 %7, %4
  ret i32 %8
}